Certificate:
    Data:
        Version: 3 (0x2)
        Serial Number: 1 (0x1)
    Signature Algorithm: sha256WithRSAEncryption
        Issuer: O=Fancy Bits, CN=Fancy Bits Channels OS Provisioning CA Root
        Validity
            Not Before: Jan  1 00:00:00 1970 GMT
            Not After : Dec 31 23:59:59 9999 GMT
        Subject: O=Fancy Bits, CN=Fancy Bits Channels OS Provisioning CA Root
        Subject Public Key Info:
            Public Key Algorithm: rsaEncryption
                Public-Key: (2048 bit)
                Modulus:
                    00:b7:cd:dd:83:0e:ae:ed:d1:11:df:5c:66:17:d0:
                    c6:9c:34:3f:9f:4c:95:e0:8a:83:9d:5a:34:5b:74:
                    ae:c0:d2:ee:96:20:5a:65:28:41:cf:08:08:fa:83:
                    4d:28:c1:9c:16:d4:2f:6c:e8:27:ec:27:eb:1e:23:
                    65:b5:78:2c:4b:df:7d:da:80:17:90:ef:f9:f8:26:
                    9d:7e:48:d5:68:81:90:05:5a:e2:20:1e:16:e7:e1:
                    09:b1:cd:b9:61:7e:8d:e8:b8:a8:a5:26:39:ca:2b:
                    80:16:75:51:c4:48:42:4d:3d:74:0d:c7:de:b4:67:
                    78:9f:d9:ca:5b:e0:a4:2a:85:a1:19:72:3a:f2:c6:
                    97:50:e4:6c:12:dc:45:fb:77:8e:bd:66:e0:b1:35:
                    93:78:35:da:fd:2d:75:0a:5a:37:ed:9a:03:2c:50:
                    88:70:af:6c:7f:ae:77:a3:27:7f:d4:62:65:5a:67:
                    9f:c5:fc:c4:49:85:d9:c7:e1:17:3d:01:87:e3:c4:
                    f0:cf:8b:d9:d7:cb:e0:7e:a2:31:e2:ba:60:9e:f8:
                    9a:ae:18:1f:c9:98:6c:d2:33:ce:b7:03:4d:4a:6a:
                    db:bf:35:5e:0c:63:d9:75:12:45:25:8c:1e:41:16:
                    45:75:d2:8a:2b:63:c5:c7:19:84:11:0b:7b:7c:6a:
                    ea:d1
                Exponent: 65537 (0x10001)
        X509v3 extensions:
            X509v3 Subject Key Identifier: 
                68:3E:53:17:2D:03:80:4B:3A:2D:54:BF:90:25:95:AB:D0:76:CE:BC
            X509v3 Authority Key Identifier: 
                keyid:68:3E:53:17:2D:03:80:4B:3A:2D:54:BF:90:25:95:AB:D0:76:CE:BC
                DirName:/O=Fancy Bits/CN=Fancy Bits Channels OS Provisioning CA Root
                serial:01

            X509v3 Basic Constraints: 
                CA:TRUE
    Signature Algorithm: sha256WithRSAEncryption
         96:4f:1c:a2:a1:50:3d:3d:fe:01:73:d0:b6:2e:58:89:48:2b:
         77:ab:4a:1c:7e:ca:27:e7:00:35:4d:cc:56:b0:80:77:b9:47:
         70:31:84:09:81:3e:da:27:b9:11:fc:13:d7:42:7c:b4:d7:f5:
         97:03:73:47:e8:bc:0e:6a:7a:26:3c:d8:33:6d:ee:32:5c:d7:
         35:26:0e:f9:04:57:ba:7e:ba:cf:b5:74:a7:1a:df:b8:66:93:
         6f:3e:ee:d3:fd:02:69:06:79:39:68:75:b8:ce:c8:70:6f:1b:
         88:f1:1c:39:33:ea:bd:d9:bf:ad:2a:e4:73:d6:c1:8a:53:ef:
         dd:49:a8:0f:70:de:8f:93:a1:5e:ba:2b:2e:d1:c7:f9:13:12:
         7d:35:80:63:78:bc:eb:e9:58:e4:5f:bc:bf:81:0f:49:ab:fd:
         82:4b:77:ed:59:8d:82:d3:88:62:d7:ad:e3:a8:75:1b:be:86:
         6e:6c:32:b8:b0:82:78:b4:df:e7:7d:fa:ef:c5:e8:67:ec:88:
         02:5f:b5:61:34:43:5d:db:f1:e8:30:e0:21:95:81:4c:cb:ad:
         30:3a:54:98:44:3b:80:9e:78:8e:94:79:3d:a0:fe:98:5d:d6:
         e8:aa:8b:1f:f6:30:c2:bb:00:8d:a9:0f:42:01:7c:f0:e8:b0:
         b9:f7:4f:32
-----BEGIN CERTIFICATE-----
MIIDuTCCAqGgAwIBAgIBATANBgkqhkiG9w0BAQsFADBLMRMwEQYDVQQKDApGYW5j
eSBCaXRzMTQwMgYDVQQDDCtGYW5jeSBCaXRzIENoYW5uZWxzIE9TIFByb3Zpc2lv
bmluZyBDQSBSb290MCAXDTcwMDEwMTAwMDAwMFoYDzk5OTkxMjMxMjM1OTU5WjBL
MRMwEQYDVQQKDApGYW5jeSBCaXRzMTQwMgYDVQQDDCtGYW5jeSBCaXRzIENoYW5u
ZWxzIE9TIFByb3Zpc2lvbmluZyBDQSBSb290MIIBIjANBgkqhkiG9w0BAQEFAAOC
AQ8AMIIBCgKCAQEAt83dgw6u7dER31xmF9DGnDQ/n0yV4IqDnVo0W3SuwNLuliBa
ZShBzwgI+oNNKMGcFtQvbOgn7CfrHiNltXgsS9992oAXkO/5+CadfkjVaIGQBVri
IB4W5+EJsc25YX6N6LiopSY5yiuAFnVRxEhCTT10DcfetGd4n9nKW+CkKoWhGXI6
8saXUORsEtxF+3eOvWbgsTWTeDXa/S11Clo37ZoDLFCIcK9sf653oyd/1GJlWmef
xfzESYXZx+EXPQGH48Twz4vZ18vgfqIx4rpgnviarhgfyZhs0jPOtwNNSmrbvzVe
DGPZdRJFJYweQRZFddKKK2PFxxmEEQt7fGrq0QIDAQABo4GlMIGiMB0GA1UdDgQW
BBRoPlMXLQOASzotVL+QJZWr0HbOvDBzBgNVHSMEbDBqgBRoPlMXLQOASzotVL+Q
JZWr0HbOvKFPpE0wSzETMBEGA1UECgwKRmFuY3kgQml0czE0MDIGA1UEAwwrRmFu
Y3kgQml0cyBDaGFubmVscyBPUyBQcm92aXNpb25pbmcgQ0EgUm9vdIIBATAMBgNV
HRMEBTADAQH/MA0GCSqGSIb3DQEBCwUAA4IBAQCWTxyioVA9Pf4Bc9C2LliJSCt3
q0ocfson5wA1TcxWsIB3uUdwMYQJgT7aJ7kR/BPXQny01/WXA3NH6LwOanomPNgz
be4yXNc1Jg75BFe6frrPtXSnGt+4ZpNvPu7T/QJpBnk5aHW4zshwbxuI8Rw5M+q9
2b+tKuRz1sGKU+/dSagPcN6Pk6Feuisu0cf5ExJ9NYBjeLzr6VjkX7y/gQ9Jq/2C
S3ftWY2C04hi163jqHUbvoZubDK4sIJ4tN/nffrvxehn7IgCX7VhNENd2/HoMOAh
lYFMy60wOlSYRDuAnniOlHk9oP6YXdboqosf9jDCuwCNqQ9CAXzw6LC5908y
-----END CERTIFICATE-----
-----BEGIN X509 CRL-----
MIIBkDB6MA0GCSqGSIb3DQEBCwUAMEsxEzARBgNVBAoMCkZhbmN5IEJpdHMxNDAy
BgNVBAMMK0ZhbmN5IEJpdHMgQ2hhbm5lbHMgT1MgUHJvdmlzaW9uaW5nIENBIFJv
b3QXDTIwMTAwODAwMDk0M1oXDTM0MDYxNzAwMDk0M1owDQYJKoZIhvcNAQELBQAD
ggEBAGhYEPxrnFKl+l6P6tP44M042r0NWYTC1UWpcO2RwjM7kfxsuLBhfhCL93is
1dpl4Gr9xSCppRknXPQYlp0Nwh8BmVzOaPt71s4dnSjEXn6mfD5lueUtEcPvJddi
gV7HaYm0hXA0013KAr3YvG7rCLNLYLgeYNhcGk/a/h0eMYGpdXPsUKuAsz2+2WMP
oozqRzsabiup6rYQj+CV6E4EFv4NrrTN4pVnRJaSY3cbePW+x9yO1W0QYsFB04S3
mmiYdX8/UhoV0ELR5FBqKwu1eiC+fm/xze5cAXff1mztYrySMjny6j6IqecE95GW
gjE14asrdmvnvja4HFZQOEoyXXw=
-----END X509 CRL-----
Certificate:
    Data:
        Version: 3 (0x2)
        Serial Number: 3 (0x3)
    Signature Algorithm: sha256WithRSAEncryption
        Issuer: O=Fancy Bits, CN=Fancy Bits Channels OS Provisioning CA Root
        Validity
            Not Before: Jan  1 00:00:00 1970 GMT
            Not After : Dec 31 23:59:59 9999 GMT
        Subject: O=Fancy Bits, CN=Fancy Bits Channels OS Provisioning CA Release
        Subject Public Key Info:
            Public Key Algorithm: rsaEncryption
                Public-Key: (2048 bit)
                Modulus:
                    00:ec:81:f4:c3:a7:e3:30:8e:fd:d5:1a:3c:41:f4:
                    e5:97:00:cd:5a:ba:29:f0:2a:57:37:cf:0c:b2:03:
                    c8:e6:4d:7f:ef:38:54:35:ce:15:6a:88:eb:94:2b:
                    06:30:37:c7:0f:64:02:e8:87:7d:c8:a1:8f:5c:ee:
                    ed:05:3d:50:28:c4:91:cf:d8:27:1b:b3:cc:f7:8f:
                    98:86:90:15:53:3a:db:0d:da:21:f4:51:f7:92:bc:
                    a6:32:b8:48:d7:46:ca:71:0c:c8:38:a4:5a:a2:a4:
                    62:45:2d:f7:de:2d:3d:59:7f:63:3f:e4:63:b4:ed:
                    1c:b2:69:e8:29:0d:2d:41:c4:55:bd:b5:48:ab:f7:
                    fd:d2:cc:30:c7:4c:08:f9:fc:df:9e:8a:fc:0e:c1:
                    56:a8:fa:0c:ed:78:1e:21:54:28:20:12:dd:9e:75:
                    ae:06:7e:57:8b:de:f3:38:b5:1b:f8:b5:1d:00:ed:
                    75:ec:2d:9c:c1:a3:40:56:a5:e8:c9:3e:ba:52:e8:
                    7a:48:bd:e0:28:64:06:52:f2:f0:bc:b4:bf:71:d0:
                    2a:3e:3e:0b:9f:45:d5:ef:38:93:a1:0b:36:43:fb:
                    f7:d7:df:92:9e:05:ef:10:97:b1:36:9a:18:a2:03:
                    14:f5:fc:91:f3:14:7d:06:f3:ee:2a:f9:17:49:0c:
                    c2:b7
                Exponent: 65537 (0x10001)
        X509v3 extensions:
            X509v3 Subject Key Identifier: 
                A3:DB:DB:08:69:7F:85:84:84:0E:F5:14:1A:0B:F0:6F:91:7F:55:31
            X509v3 Authority Key Identifier: 
                keyid:68:3E:53:17:2D:03:80:4B:3A:2D:54:BF:90:25:95:AB:D0:76:CE:BC
                DirName:/O=Fancy Bits/CN=Fancy Bits Channels OS Provisioning CA Root
                serial:01

            X509v3 Basic Constraints: 
                CA:TRUE, pathlen:0
    Signature Algorithm: sha256WithRSAEncryption
         1b:80:bd:4b:36:e6:a4:da:b7:4a:f0:83:15:fc:1e:4c:bb:13:
         1e:73:39:f7:84:b6:e5:67:47:c0:89:78:94:8f:4f:32:35:7b:
         59:f6:74:05:82:56:92:87:69:2e:a9:d4:b0:d9:7c:d7:55:7b:
         a8:b2:8d:aa:f5:af:eb:c3:37:2d:3f:3a:d4:88:a3:96:83:79:
         93:4b:6d:9f:9f:4d:ab:bb:c8:50:ee:86:ae:6e:4d:b1:e7:a0:
         4e:64:c6:55:bd:d1:49:73:00:c4:de:f9:28:cc:39:7b:f5:4b:
         33:99:55:f0:0d:a5:86:ff:80:75:da:c3:d8:0c:77:81:8e:fd:
         88:6f:ae:8a:5e:ba:51:ca:74:64:b2:a8:72:18:ce:f8:49:be:
         71:c1:94:cd:44:52:49:e0:7c:d0:dd:62:8e:20:41:62:39:f4:
         40:26:55:55:ec:dd:7b:ce:ce:87:c7:a7:3b:4c:85:62:c2:d2:
         1c:75:61:dd:e4:81:80:63:59:1d:e9:dd:a3:1f:e7:6e:49:01:
         d7:cd:48:27:21:e0:ad:7e:ce:83:b7:e9:d9:50:37:96:21:02:
         11:a2:11:b4:1c:b3:52:80:f4:9b:22:d9:37:d3:b8:e0:69:65:
         08:79:49:45:f1:59:19:5f:5d:c8:9a:47:0e:7f:07:19:a1:3c:
         11:5b:7f:ad
-----BEGIN CERTIFICATE-----
MIIDvzCCAqegAwIBAgIBAzANBgkqhkiG9w0BAQsFADBLMRMwEQYDVQQKDApGYW5j
eSBCaXRzMTQwMgYDVQQDDCtGYW5jeSBCaXRzIENoYW5uZWxzIE9TIFByb3Zpc2lv
bmluZyBDQSBSb290MCAXDTcwMDEwMTAwMDAwMFoYDzk5OTkxMjMxMjM1OTU5WjBO
MRMwEQYDVQQKDApGYW5jeSBCaXRzMTcwNQYDVQQDDC5GYW5jeSBCaXRzIENoYW5u
ZWxzIE9TIFByb3Zpc2lvbmluZyBDQSBSZWxlYXNlMIIBIjANBgkqhkiG9w0BAQEF
AAOCAQ8AMIIBCgKCAQEA7IH0w6fjMI791Ro8QfTllwDNWrop8CpXN88MsgPI5k1/
7zhUNc4VaojrlCsGMDfHD2QC6Id9yKGPXO7tBT1QKMSRz9gnG7PM94+YhpAVUzrb
Ddoh9FH3krymMrhI10bKcQzIOKRaoqRiRS333i09WX9jP+RjtO0csmnoKQ0tQcRV
vbVIq/f90swwx0wI+fzfnor8DsFWqPoM7XgeIVQoIBLdnnWuBn5Xi97zOLUb+LUd
AO117C2cwaNAVqXoyT66Uuh6SL3gKGQGUvLwvLS/cdAqPj4Ln0XV7ziToQs2Q/v3
19+SngXvEJexNpoYogMU9fyR8xR9BvPuKvkXSQzCtwIDAQABo4GoMIGlMB0GA1Ud
DgQWBBSj29sIaX+FhIQO9RQaC/BvkX9VMTBzBgNVHSMEbDBqgBRoPlMXLQOASzot
VL+QJZWr0HbOvKFPpE0wSzETMBEGA1UECgwKRmFuY3kgQml0czE0MDIGA1UEAwwr
RmFuY3kgQml0cyBDaGFubmVscyBPUyBQcm92aXNpb25pbmcgQ0EgUm9vdIIBATAP
BgNVHRMECDAGAQH/AgEAMA0GCSqGSIb3DQEBCwUAA4IBAQAbgL1LNuak2rdK8IMV
/B5MuxMeczn3hLblZ0fAiXiUj08yNXtZ9nQFglaSh2kuqdSw2XzXVXuoso2q9a/r
wzctPzrUiKOWg3mTS22fn02ru8hQ7oaubk2x56BOZMZVvdFJcwDE3vkozDl79Usz
mVXwDaWG/4B12sPYDHeBjv2Ib66KXrpRynRksqhyGM74Sb5xwZTNRFJJ4HzQ3WKO
IEFiOfRAJlVV7N17zs6Hx6c7TIViwtIcdWHd5IGAY1kd6d2jH+duSQHXzUgnIeCt
fs6Dt+nZUDeWIQIRohG0HLNSgPSbItk307jgaWUIeUlF8VkZX13ImkcOfwcZoTwR
W3+t
-----END CERTIFICATE-----
-----BEGIN X509 CRL-----
MIIBkzB9MA0GCSqGSIb3DQEBCwUAME4xEzARBgNVBAoMCkZhbmN5IEJpdHMxNzA1
BgNVBAMMLkZhbmN5IEJpdHMgQ2hhbm5lbHMgT1MgUHJvdmlzaW9uaW5nIENBIFJl
bGVhc2UXDTIwMTAwODAwMDk0M1oXDTM0MDYxNzAwMDk0M1owDQYJKoZIhvcNAQEL
BQADggEBAFiRsvvtRHWC4JurHXcgHRqEkFaMh5QLqzzzZbcHPeSqAnh0aSQBjgxX
336/JZSftcxsd7n0EfDRRYLkCOe/AylYlZKYEfyu4n+YefhESWl4ICto5T7xmF/e
3epfl3Xe2+QNm6sCVNYpEXbe1HaR3wcwZmcggJJWHeACf4dOAEEQ+Qa51YZ1W6WD
SWLwxjdkGpTXXrZmSDhwqbhmlkbZ+yrbVwQJLHgHbzjNJj9gtgfizEXYIxlf3tbY
Y9Ehc4fy0inic7E5t2Z305bPDRzN+OC3cRCnr4EIn4s/Wi/p3+7juCvgg0OxQj2i
+xfu4OFyipJGjgzkUSWAsGWYy30c8dk=
-----END X509 CRL-----
Certificate:
    Data:
        Version: 3 (0x2)
        Serial Number: 4 (0x4)
    Signature Algorithm: sha256WithRSAEncryption
        Issuer: O=Fancy Bits, CN=Fancy Bits Channels OS Provisioning CA Root
        Validity
            Not Before: Jan  1 00:00:00 1970 GMT
            Not After : Dec 31 23:59:59 9999 GMT
        Subject: O=Fancy Bits, CN=Fancy Bits Channels OS Provisioning CA Development
        Subject Public Key Info:
            Public Key Algorithm: rsaEncryption
                Public-Key: (2048 bit)
                Modulus:
                    00:a8:af:e2:e6:ca:54:ea:82:48:7d:4c:bf:b2:16:
                    91:fa:52:9f:67:57:10:82:3f:1d:ed:72:79:a1:55:
                    55:10:fa:ee:a7:56:60:e5:d3:62:7d:48:31:a4:4f:
                    7f:1a:88:d7:6d:93:f6:bf:0b:a8:7e:e8:83:c4:e1:
                    5d:d3:54:03:fb:fb:b6:e2:cb:f4:34:7e:c1:35:0c:
                    1b:22:b4:6f:fa:ad:90:62:fd:a9:6b:ad:fc:24:41:
                    28:5d:ee:e8:64:21:78:d6:d0:36:9a:2c:57:2b:3b:
                    f1:ab:45:4c:ed:57:f8:55:01:79:8b:0e:ae:76:7e:
                    f4:40:0c:9e:ff:72:28:df:a5:d9:3b:59:10:aa:07:
                    ef:48:d0:2b:02:7c:fd:75:c6:be:75:b4:b8:b2:55:
                    b3:91:e9:06:18:d9:e7:c5:5b:9d:63:be:ff:ca:32:
                    ba:a2:88:b5:f5:86:36:aa:2c:20:fe:75:33:05:32:
                    41:2a:f5:fa:4b:cb:08:81:9d:64:bb:08:0f:3a:91:
                    37:e5:16:4e:ec:9e:be:ba:3a:07:9b:01:86:8d:ad:
                    60:5f:10:8d:6f:60:16:87:47:55:c8:aa:ad:28:d6:
                    cc:d2:8c:76:c3:00:cd:00:c4:bf:ec:f1:55:01:43:
                    25:47:da:1d:f2:25:95:5c:ba:c7:af:f2:b4:84:c8:
                    62:fd
                Exponent: 65537 (0x10001)
        X509v3 extensions:
            X509v3 Subject Key Identifier: 
                27:98:FA:87:24:CD:ED:00:53:9B:E3:C6:96:DB:C7:92:2A:D6:EE:49
            X509v3 Authority Key Identifier: 
                keyid:68:3E:53:17:2D:03:80:4B:3A:2D:54:BF:90:25:95:AB:D0:76:CE:BC
                DirName:/O=Fancy Bits/CN=Fancy Bits Channels OS Provisioning CA Root
                serial:01

            X509v3 Basic Constraints: 
                CA:TRUE, pathlen:0
    Signature Algorithm: sha256WithRSAEncryption
         2a:be:e3:bb:e7:9b:cb:1c:4a:e5:47:1e:1a:77:cd:41:53:da:
         25:3b:3d:c4:10:06:9a:82:a2:7e:ce:b9:65:d9:b8:14:3b:b9:
         48:61:07:e9:b0:f4:5b:54:81:44:2e:f1:4b:a8:e3:f5:53:04:
         d6:10:b3:21:3c:9e:a7:cb:71:cb:b8:2a:78:86:5a:12:f8:a7:
         53:1b:ea:66:33:f5:c5:70:25:b5:a2:bb:5f:b9:43:48:2e:5e:
         74:75:e7:24:d9:6f:ed:de:61:2e:15:9a:bc:f8:81:43:23:37:
         28:c7:38:c3:e3:46:b0:c6:a7:47:0e:3c:4c:7e:ec:d7:09:ae:
         54:f2:12:4b:cb:5d:c2:af:40:4a:5b:fb:ab:f4:07:fd:fb:9d:
         31:70:15:67:fb:31:27:42:f2:ba:90:a8:ce:e4:08:47:24:e4:
         99:b2:93:4d:3c:80:83:cd:b8:59:35:6d:3a:74:b3:77:04:bc:
         a6:95:48:07:76:b8:87:05:08:d8:f7:50:e8:ce:3c:7f:6b:8e:
         1f:f0:14:fe:f0:21:81:80:a4:b8:66:b7:a5:03:d6:72:b9:a4:
         bb:08:4f:59:96:8d:6f:be:3a:3b:f2:1c:c1:6f:60:c7:03:df:
         5e:27:fc:ae:8b:5b:b9:ae:cb:52:1d:0a:c6:aa:fc:46:2a:3a:
         97:6b:73:ec
-----BEGIN CERTIFICATE-----
MIIDwzCCAqugAwIBAgIBBDANBgkqhkiG9w0BAQsFADBLMRMwEQYDVQQKDApGYW5j
eSBCaXRzMTQwMgYDVQQDDCtGYW5jeSBCaXRzIENoYW5uZWxzIE9TIFByb3Zpc2lv
bmluZyBDQSBSb290MCAXDTcwMDEwMTAwMDAwMFoYDzk5OTkxMjMxMjM1OTU5WjBS
MRMwEQYDVQQKDApGYW5jeSBCaXRzMTswOQYDVQQDDDJGYW5jeSBCaXRzIENoYW5u
ZWxzIE9TIFByb3Zpc2lvbmluZyBDQSBEZXZlbG9wbWVudDCCASIwDQYJKoZIhvcN
AQEBBQADggEPADCCAQoCggEBAKiv4ubKVOqCSH1Mv7IWkfpSn2dXEII/He1yeaFV
VRD67qdWYOXTYn1IMaRPfxqI122T9r8LqH7og8ThXdNUA/v7tuLL9DR+wTUMGyK0
b/qtkGL9qWut/CRBKF3u6GQheNbQNposVys78atFTO1X+FUBeYsOrnZ+9EAMnv9y
KN+l2TtZEKoH70jQKwJ8/XXGvnW0uLJVs5HpBhjZ58VbnWO+/8oyuqKItfWGNqos
IP51MwUyQSr1+kvLCIGdZLsIDzqRN+UWTuyevro6B5sBho2tYF8QjW9gFodHVciq
rSjWzNKMdsMAzQDEv+zxVQFDJUfaHfIllVy6x6/ytITIYv0CAwEAAaOBqDCBpTAd
BgNVHQ4EFgQUJ5j6hyTN7QBTm+PGltvHkirW7kkwcwYDVR0jBGwwaoAUaD5TFy0D
gEs6LVS/kCWVq9B2zryhT6RNMEsxEzARBgNVBAoMCkZhbmN5IEJpdHMxNDAyBgNV
BAMMK0ZhbmN5IEJpdHMgQ2hhbm5lbHMgT1MgUHJvdmlzaW9uaW5nIENBIFJvb3SC
AQEwDwYDVR0TBAgwBgEB/wIBADANBgkqhkiG9w0BAQsFAAOCAQEAKr7ju+ebyxxK
5UceGnfNQVPaJTs9xBAGmoKifs65Zdm4FDu5SGEH6bD0W1SBRC7xS6jj9VME1hCz
ITyep8txy7gqeIZaEvinUxvqZjP1xXAltaK7X7lDSC5edHXnJNlv7d5hLhWavPiB
QyM3KMc4w+NGsManRw48TH7s1wmuVPISS8tdwq9ASlv7q/QH/fudMXAVZ/sxJ0Ly
upCozuQIRyTkmbKTTTyAg824WTVtOnSzdwS8ppVIB3a4hwUI2PdQ6M48f2uOH/AU
/vAhgYCkuGa3pQPWcrmkuwhPWZaNb746O/IcwW9gxwPfXif8rotbua7LUh0Kxqr8
Rio6l2tz7A==
-----END CERTIFICATE-----
-----BEGIN X509 CRL-----
MIIBrjCBlzANBgkqhkiG9w0BAQsFADBSMRMwEQYDVQQKDApGYW5jeSBCaXRzMTsw
OQYDVQQDDDJGYW5jeSBCaXRzIENoYW5uZWxzIE9TIFByb3Zpc2lvbmluZyBDQSBE
ZXZlbG9wbWVudBcNMjAxMDA4MDAwOTQzWhcNMzQwNjE3MDAwOTQzWjAUMBICAQIX
DTIwMTAwODAwMDk0M1owDQYJKoZIhvcNAQELBQADggEBAJM9m0foo+WUuGsmNH0R
fov+xF2W/APofyfx9mRYPL8UDjSY9T4lVd0CavsancRUKZiklddIyAwly48T11D1
I7lLzkOBeZKE/UMHpDDXcFzfAQFI0CXcaT2q8SSjGqPRe1AJfeW90hMpHkyZaHU6
CykaT1l6ZF5DYByw5iSCnQMIFSs6/LTY66nu7Upx0qi4Z/c7UL4v+bK0W5nycrkN
xeePgiCM1CfgmDgioPq5U5pJSCtBUU4bNfwqdpvdByhxNITzZgIMI6yVLbLiWCbn
7f/tdaFIX8drXDMROzdvAq1839b8+vKTyMa2XHzwNJ0dr6pa3T3c8tRrV+HMqQwr
Sfk=
-----END X509 CRL-----
