Certificate:
    Data:
        Version: 3 (0x2)
        Serial Number: 1 (0x1)
    Signature Algorithm: sha256WithRSAEncryption
        Issuer: O=Fancy Bits, CN=Fancy Bits Channels OS Provisioning CA Root
        Validity
            Not Before: Jan  1 00:00:00 1970 GMT
            Not After : Dec 31 23:59:59 9999 GMT
        Subject: O=Fancy Bits, CN=Fancy Bits Channels OS Provisioning CA Root
        Subject Public Key Info:
            Public Key Algorithm: rsaEncryption
                Public-Key: (2048 bit)
                Modulus:
                    00:b7:cd:dd:83:0e:ae:ed:d1:11:df:5c:66:17:d0:
                    c6:9c:34:3f:9f:4c:95:e0:8a:83:9d:5a:34:5b:74:
                    ae:c0:d2:ee:96:20:5a:65:28:41:cf:08:08:fa:83:
                    4d:28:c1:9c:16:d4:2f:6c:e8:27:ec:27:eb:1e:23:
                    65:b5:78:2c:4b:df:7d:da:80:17:90:ef:f9:f8:26:
                    9d:7e:48:d5:68:81:90:05:5a:e2:20:1e:16:e7:e1:
                    09:b1:cd:b9:61:7e:8d:e8:b8:a8:a5:26:39:ca:2b:
                    80:16:75:51:c4:48:42:4d:3d:74:0d:c7:de:b4:67:
                    78:9f:d9:ca:5b:e0:a4:2a:85:a1:19:72:3a:f2:c6:
                    97:50:e4:6c:12:dc:45:fb:77:8e:bd:66:e0:b1:35:
                    93:78:35:da:fd:2d:75:0a:5a:37:ed:9a:03:2c:50:
                    88:70:af:6c:7f:ae:77:a3:27:7f:d4:62:65:5a:67:
                    9f:c5:fc:c4:49:85:d9:c7:e1:17:3d:01:87:e3:c4:
                    f0:cf:8b:d9:d7:cb:e0:7e:a2:31:e2:ba:60:9e:f8:
                    9a:ae:18:1f:c9:98:6c:d2:33:ce:b7:03:4d:4a:6a:
                    db:bf:35:5e:0c:63:d9:75:12:45:25:8c:1e:41:16:
                    45:75:d2:8a:2b:63:c5:c7:19:84:11:0b:7b:7c:6a:
                    ea:d1
                Exponent: 65537 (0x10001)
        X509v3 extensions:
            X509v3 Subject Key Identifier: 
                68:3E:53:17:2D:03:80:4B:3A:2D:54:BF:90:25:95:AB:D0:76:CE:BC
            X509v3 Authority Key Identifier: 
                keyid:68:3E:53:17:2D:03:80:4B:3A:2D:54:BF:90:25:95:AB:D0:76:CE:BC
                DirName:/O=Fancy Bits/CN=Fancy Bits Channels OS Provisioning CA Root
                serial:01

            X509v3 Basic Constraints: 
                CA:TRUE
    Signature Algorithm: sha256WithRSAEncryption
         96:4f:1c:a2:a1:50:3d:3d:fe:01:73:d0:b6:2e:58:89:48:2b:
         77:ab:4a:1c:7e:ca:27:e7:00:35:4d:cc:56:b0:80:77:b9:47:
         70:31:84:09:81:3e:da:27:b9:11:fc:13:d7:42:7c:b4:d7:f5:
         97:03:73:47:e8:bc:0e:6a:7a:26:3c:d8:33:6d:ee:32:5c:d7:
         35:26:0e:f9:04:57:ba:7e:ba:cf:b5:74:a7:1a:df:b8:66:93:
         6f:3e:ee:d3:fd:02:69:06:79:39:68:75:b8:ce:c8:70:6f:1b:
         88:f1:1c:39:33:ea:bd:d9:bf:ad:2a:e4:73:d6:c1:8a:53:ef:
         dd:49:a8:0f:70:de:8f:93:a1:5e:ba:2b:2e:d1:c7:f9:13:12:
         7d:35:80:63:78:bc:eb:e9:58:e4:5f:bc:bf:81:0f:49:ab:fd:
         82:4b:77:ed:59:8d:82:d3:88:62:d7:ad:e3:a8:75:1b:be:86:
         6e:6c:32:b8:b0:82:78:b4:df:e7:7d:fa:ef:c5:e8:67:ec:88:
         02:5f:b5:61:34:43:5d:db:f1:e8:30:e0:21:95:81:4c:cb:ad:
         30:3a:54:98:44:3b:80:9e:78:8e:94:79:3d:a0:fe:98:5d:d6:
         e8:aa:8b:1f:f6:30:c2:bb:00:8d:a9:0f:42:01:7c:f0:e8:b0:
         b9:f7:4f:32
-----BEGIN CERTIFICATE-----
MIIDuTCCAqGgAwIBAgIBATANBgkqhkiG9w0BAQsFADBLMRMwEQYDVQQKDApGYW5j
eSBCaXRzMTQwMgYDVQQDDCtGYW5jeSBCaXRzIENoYW5uZWxzIE9TIFByb3Zpc2lv
bmluZyBDQSBSb290MCAXDTcwMDEwMTAwMDAwMFoYDzk5OTkxMjMxMjM1OTU5WjBL
MRMwEQYDVQQKDApGYW5jeSBCaXRzMTQwMgYDVQQDDCtGYW5jeSBCaXRzIENoYW5u
ZWxzIE9TIFByb3Zpc2lvbmluZyBDQSBSb290MIIBIjANBgkqhkiG9w0BAQEFAAOC
AQ8AMIIBCgKCAQEAt83dgw6u7dER31xmF9DGnDQ/n0yV4IqDnVo0W3SuwNLuliBa
ZShBzwgI+oNNKMGcFtQvbOgn7CfrHiNltXgsS9992oAXkO/5+CadfkjVaIGQBVri
IB4W5+EJsc25YX6N6LiopSY5yiuAFnVRxEhCTT10DcfetGd4n9nKW+CkKoWhGXI6
8saXUORsEtxF+3eOvWbgsTWTeDXa/S11Clo37ZoDLFCIcK9sf653oyd/1GJlWmef
xfzESYXZx+EXPQGH48Twz4vZ18vgfqIx4rpgnviarhgfyZhs0jPOtwNNSmrbvzVe
DGPZdRJFJYweQRZFddKKK2PFxxmEEQt7fGrq0QIDAQABo4GlMIGiMB0GA1UdDgQW
BBRoPlMXLQOASzotVL+QJZWr0HbOvDBzBgNVHSMEbDBqgBRoPlMXLQOASzotVL+Q
JZWr0HbOvKFPpE0wSzETMBEGA1UECgwKRmFuY3kgQml0czE0MDIGA1UEAwwrRmFu
Y3kgQml0cyBDaGFubmVscyBPUyBQcm92aXNpb25pbmcgQ0EgUm9vdIIBATAMBgNV
HRMEBTADAQH/MA0GCSqGSIb3DQEBCwUAA4IBAQCWTxyioVA9Pf4Bc9C2LliJSCt3
q0ocfson5wA1TcxWsIB3uUdwMYQJgT7aJ7kR/BPXQny01/WXA3NH6LwOanomPNgz
be4yXNc1Jg75BFe6frrPtXSnGt+4ZpNvPu7T/QJpBnk5aHW4zshwbxuI8Rw5M+q9
2b+tKuRz1sGKU+/dSagPcN6Pk6Feuisu0cf5ExJ9NYBjeLzr6VjkX7y/gQ9Jq/2C
S3ftWY2C04hi163jqHUbvoZubDK4sIJ4tN/nffrvxehn7IgCX7VhNENd2/HoMOAh
lYFMy60wOlSYRDuAnniOlHk9oP6YXdboqosf9jDCuwCNqQ9CAXzw6LC5908y
-----END CERTIFICATE-----
-----BEGIN X509 CRL-----
MIIBkDB6MA0GCSqGSIb3DQEBCwUAMEsxEzARBgNVBAoMCkZhbmN5IEJpdHMxNDAy
BgNVBAMMK0ZhbmN5IEJpdHMgQ2hhbm5lbHMgT1MgUHJvdmlzaW9uaW5nIENBIFJv
b3QXDTIwMTAwODAwMDk0M1oXDTM0MDYxNzAwMDk0M1owDQYJKoZIhvcNAQELBQAD
ggEBAGhYEPxrnFKl+l6P6tP44M042r0NWYTC1UWpcO2RwjM7kfxsuLBhfhCL93is
1dpl4Gr9xSCppRknXPQYlp0Nwh8BmVzOaPt71s4dnSjEXn6mfD5lueUtEcPvJddi
gV7HaYm0hXA0013KAr3YvG7rCLNLYLgeYNhcGk/a/h0eMYGpdXPsUKuAsz2+2WMP
oozqRzsabiup6rYQj+CV6E4EFv4NrrTN4pVnRJaSY3cbePW+x9yO1W0QYsFB04S3
mmiYdX8/UhoV0ELR5FBqKwu1eiC+fm/xze5cAXff1mztYrySMjny6j6IqecE95GW
gjE14asrdmvnvja4HFZQOEoyXXw=
-----END X509 CRL-----
-----BEGIN X509 CRL-----
MIIBkzB9MA0GCSqGSIb3DQEBCwUAME4xEzARBgNVBAoMCkZhbmN5IEJpdHMxNzA1
BgNVBAMMLkZhbmN5IEJpdHMgQ2hhbm5lbHMgT1MgUHJvdmlzaW9uaW5nIENBIFJl
bGVhc2UXDTIwMTAwODAwMDk0M1oXDTM0MDYxNzAwMDk0M1owDQYJKoZIhvcNAQEL
BQADggEBAFiRsvvtRHWC4JurHXcgHRqEkFaMh5QLqzzzZbcHPeSqAnh0aSQBjgxX
336/JZSftcxsd7n0EfDRRYLkCOe/AylYlZKYEfyu4n+YefhESWl4ICto5T7xmF/e
3epfl3Xe2+QNm6sCVNYpEXbe1HaR3wcwZmcggJJWHeACf4dOAEEQ+Qa51YZ1W6WD
SWLwxjdkGpTXXrZmSDhwqbhmlkbZ+yrbVwQJLHgHbzjNJj9gtgfizEXYIxlf3tbY
Y9Ehc4fy0inic7E5t2Z305bPDRzN+OC3cRCnr4EIn4s/Wi/p3+7juCvgg0OxQj2i
+xfu4OFyipJGjgzkUSWAsGWYy30c8dk=
-----END X509 CRL-----
-----BEGIN X509 CRL-----
MIIBrjCBlzANBgkqhkiG9w0BAQsFADBSMRMwEQYDVQQKDApGYW5jeSBCaXRzMTsw
OQYDVQQDDDJGYW5jeSBCaXRzIENoYW5uZWxzIE9TIFByb3Zpc2lvbmluZyBDQSBE
ZXZlbG9wbWVudBcNMjAxMDA4MDAwOTQzWhcNMzQwNjE3MDAwOTQzWjAUMBICAQIX
DTIwMTAwODAwMDk0M1owDQYJKoZIhvcNAQELBQADggEBAJM9m0foo+WUuGsmNH0R
fov+xF2W/APofyfx9mRYPL8UDjSY9T4lVd0CavsancRUKZiklddIyAwly48T11D1
I7lLzkOBeZKE/UMHpDDXcFzfAQFI0CXcaT2q8SSjGqPRe1AJfeW90hMpHkyZaHU6
CykaT1l6ZF5DYByw5iSCnQMIFSs6/LTY66nu7Upx0qi4Z/c7UL4v+bK0W5nycrkN
xeePgiCM1CfgmDgioPq5U5pJSCtBUU4bNfwqdpvdByhxNITzZgIMI6yVLbLiWCbn
7f/tdaFIX8drXDMROzdvAq1839b8+vKTyMa2XHzwNJ0dr6pa3T3c8tRrV+HMqQwr
Sfk=
-----END X509 CRL-----
